; Function Attrs: mustprogress nofree norecurse nounwind uwtable
define hidden noundef i64 @_ZNK24G1MonotonicArenaFreePool8mem_sizeEv(ptr nocapture noundef nonnull readonly align 8 dereferenceable(16) %0) local_unnamed_addr #3 align 2 {
  %2 = load i32, ptr %0, align 8
  %.not = icmp eq i32 %2, 0
  br i1 %.not, label %._crit_edge, label %.lr.ph

.lr.ph:                                           ; preds = %1
  %3 = getelementptr inbounds i8, ptr %0, i64 8
  %4 = load ptr, ptr %3, align 8
  %wide.trip.count = zext i32 %2 to i64
  br label %5

5:                                                ; preds = %.lr.ph, %5
  %indvars.iv = phi i64 [ 0, %.lr.ph ], [ %indvars.iv.next, %5 ]
  %.056 = phi i64 [ 0, %.lr.ph ], [ %8, %5 ]
  %6 = getelementptr inbounds %"class.G1MonotonicArena::SegmentFreeList", ptr %4, i64 %indvars.iv, i32 2
  %7 = load volatile i64, ptr %6, align 8
  %8 = add i64 %7, %.056
  %indvars.iv.next = add nuw nsw i64 %indvars.iv, 1
  %exitcond.not = icmp eq i64 %indvars.iv.next, %wide.trip.count
  br i1 %exitcond.not, label %._crit_edge, label %5, !llvm.loop !13

._crit_edge:                                      ; preds = %5, %1
  %.05.lcssa = phi i64 [ 0, %1 ], [ %8, %5 ]
  ret i64 %.05.lcssa
}